target datalayout = "e-m:e-p270:32:32-p271:32:32-p272:64:64-i64:64-i128:128-f80:128-n8:16:32:64-S128"
target triple = "x86_64-pc-linux-gnu"

; Function Attrs: null_pointer_is_valid sspstrong uwtable
define internal void @encrypt_block(ptr noundef %0, ptr noundef %1, ptr noundef %2) #0 {
  %4 = alloca ptr, align 8
  %5 = alloca ptr, align 8
  %6 = alloca ptr, align 8
  %7 = alloca ptr, align 8
  store ptr %0, ptr %4, align 8
  store ptr %1, ptr %5, align 8
  store ptr %2, ptr %6, align 8
  call void @llvm.lifetime.start.p0(i64 8, ptr %7) #10
  store ptr null, ptr %7, align 8
  %8 = call i32 @gcry_cipher_open(ptr noundef %7, i32 noundef 7, i32 noundef 3, i32 noundef 0)
  %9 = load ptr, ptr %7, align 8
  %10 = load ptr, ptr %4, align 8
  %11 = call i32 @gcry_cipher_setkey(ptr noundef %9, ptr noundef %10, i64 noundef 16)
  %12 = load ptr, ptr %7, align 8
  %13 = load ptr, ptr %6, align 8
  %14 = load ptr, ptr %5, align 8
  %15 = call i32 @gcry_cipher_encrypt(ptr noundef %12, ptr noundef %13, i64 noundef 16, ptr noundef %14, i64 noundef 16)
  %16 = load ptr, ptr %7, align 8
  call void @gcry_cipher_close(ptr noundef %16)
  call void @llvm.lifetime.end.p0(i64 8, ptr %7) #10
  ret void
}

; Function Attrs: alwaysinline nounwind
define internal ptr @memcpy.inline(ptr noalias %0, ptr noalias %1, i64 %2) #2 {
  %4 = alloca ptr, align 8
  %5 = alloca ptr, align 8
  %6 = alloca i64, align 8
  store ptr %0, ptr %4, align 8
  store ptr %1, ptr %5, align 8
  store i64 %2, ptr %6, align 8
  %7 = load ptr, ptr %4, align 8
  %8 = load ptr, ptr %5, align 8
  %9 = load i64, ptr %6, align 8
  %10 = load ptr, ptr %4, align 8
  %11 = call i64 @llvm.objectsize.i64.p0(ptr %10, i1 false, i1 true, i1 true)
  %12 = call ptr @__memcpy_chk(ptr noundef %7, ptr noundef %8, i64 noundef %9, i64 noundef %11) #10
  ret ptr %12
}

; Function Attrs: null_pointer_is_valid sspstrong uwtable
define hidden ptr @knx_ccm_encrypt(ptr noundef %0, ptr noundef %1, ptr noundef %2, i32 noundef %3, ptr noundef %4, i8 noundef zeroext %5, ptr noundef %6, i8 noundef zeroext %7) #0 {
  %9 = alloca ptr, align 8
  %10 = alloca ptr, align 8
  %11 = alloca ptr, align 8
  %12 = alloca ptr, align 8
  %13 = alloca i32, align 4
  %14 = alloca ptr, align 8
  %15 = alloca i8, align 1
  %16 = alloca ptr, align 8
  %17 = alloca i8, align 1
  %18 = alloca ptr, align 8
  %19 = alloca ptr, align 8
  %20 = alloca [16 x i8], align 16
  %21 = alloca [16 x i8], align 16
  %22 = alloca [16 x i8], align 16
  %23 = alloca i8, align 1
  store ptr %0, ptr %10, align 8
  store ptr %1, ptr %11, align 8
  store ptr %2, ptr %12, align 8
  store i32 %3, ptr %13, align 4
  store ptr %4, ptr %14, align 8
  store i8 %5, ptr %15, align 1
  store ptr %6, ptr %16, align 8
  store i8 %7, ptr %17, align 1
  %24 = load i32, ptr %13, align 4
  %25 = icmp sge i32 %24, 0
  br i1 %25, label %26, label %151

26:                                               ; preds = %8
  %27 = load i32, ptr %13, align 4
  %28 = icmp ne i32 %27, 0
  br i1 %28, label %29, label %32

29:                                               ; preds = %26
  %30 = load ptr, ptr %12, align 8
  %31 = icmp ne ptr %30, null
  br i1 %31, label %32, label %151

32:                                               ; preds = %29, %26
  call void @llvm.lifetime.start.p0(i64 8, ptr %18) #10
  %33 = load ptr, ptr %10, align 8
  %34 = icmp ne ptr %33, null
  br i1 %34, label %35, label %37

35:                                               ; preds = %32
  %36 = load ptr, ptr %10, align 8
  br label %45

37:                                               ; preds = %32
  %38 = call ptr @wmem_packet_scope()
  %39 = load i32, ptr %13, align 4
  %40 = load i8, ptr %15, align 1
  %41 = zext i8 %40 to i32
  %42 = add i32 %39, %41
  %43 = sext i32 %42 to i64
  %44 = call noalias ptr @wmem_alloc(ptr noundef %38, i64 noundef %43) #12
  br label %45

45:                                               ; preds = %37, %35
  %46 = phi ptr [ %36, %35 ], [ %44, %37 ]
  store ptr %46, ptr %18, align 8
  call void @llvm.lifetime.start.p0(i64 8, ptr %19) #10
  %47 = load ptr, ptr %18, align 8
  store ptr %47, ptr %19, align 8
  call void @llvm.lifetime.start.p0(i64 16, ptr %20) #10
  call void @llvm.lifetime.start.p0(i64 16, ptr %21) #10
  call void @llvm.lifetime.start.p0(i64 16, ptr %22) #10
  call void @llvm.lifetime.start.p0(i64 1, ptr %23) #10
  %48 = getelementptr inbounds [16 x i8], ptr %20, i64 0, i64 0
  %49 = load ptr, ptr %16, align 8
  %50 = call ptr @memcpy.inline(ptr noundef %48, ptr noundef %49, i64 noundef 16) #10
  %51 = load ptr, ptr %11, align 8
  %52 = getelementptr inbounds [16 x i8], ptr %20, i64 0, i64 0
  %53 = getelementptr inbounds [16 x i8], ptr %22, i64 0, i64 0
  call void @encrypt_block(ptr noundef %51, ptr noundef %52, ptr noundef %53)
  %54 = load i8, ptr %17, align 1
  store i8 %54, ptr %23, align 1
  br label %55

55:                                               ; preds = %64, %45
  %56 = load i32, ptr %13, align 4
  %57 = icmp ne i32 %56, 0
  br i1 %57, label %58, label %62

58:                                               ; preds = %55
  %59 = load i8, ptr %23, align 1
  %60 = zext i8 %59 to i32
  %61 = icmp slt i32 %60, 16
  br label %62

62:                                               ; preds = %58, %55
  %63 = phi i1 [ false, %55 ], [ %61, %58 ]
  br i1 %63, label %64, label %81

64:                                               ; preds = %62
  %65 = load i8, ptr %23, align 1
  %66 = add i8 %65, 1
  store i8 %66, ptr %23, align 1
  %67 = zext i8 %65 to i64
  %68 = getelementptr [16 x i8], ptr %22, i64 0, i64 %67
  %69 = load i8, ptr %68, align 1
  %70 = zext i8 %69 to i32
  %71 = load ptr, ptr %12, align 8
  %72 = getelementptr i8, ptr %71, i32 1
  store ptr %72, ptr %12, align 8
  %73 = load i8, ptr %71, align 1
  %74 = zext i8 %73 to i32
  %75 = xor i32 %70, %74
  %76 = trunc i32 %75 to i8
  %77 = load ptr, ptr %19, align 8
  %78 = getelementptr i8, ptr %77, i32 1
  store ptr %78, ptr %19, align 8
  store i8 %76, ptr %77, align 1
  %79 = load i32, ptr %13, align 4
  %80 = add i32 %79, -1
  store i32 %80, ptr %13, align 4
  br label %55, !llvm.loop !11

81:                                               ; preds = %62
  br label %82

82:                                               ; preds = %118, %81
  %83 = load i32, ptr %13, align 4
  %84 = icmp ne i32 %83, 0
  br i1 %84, label %85, label %119

85:                                               ; preds = %82
  %86 = getelementptr [16 x i8], ptr %20, i64 0, i64 15
  %87 = load i8, ptr %86, align 1
  %88 = add i8 %87, 1
  store i8 %88, ptr %86, align 1
  %89 = load ptr, ptr %11, align 8
  %90 = getelementptr inbounds [16 x i8], ptr %20, i64 0, i64 0
  %91 = getelementptr inbounds [16 x i8], ptr %21, i64 0, i64 0
  call void @encrypt_block(ptr noundef %89, ptr noundef %90, ptr noundef %91)
  store i8 0, ptr %23, align 1
  br label %92

92:                                               ; preds = %101, %85
  %93 = load i32, ptr %13, align 4
  %94 = icmp ne i32 %93, 0
  br i1 %94, label %95, label %99

95:                                               ; preds = %92
  %96 = load i8, ptr %23, align 1
  %97 = zext i8 %96 to i32
  %98 = icmp slt i32 %97, 16
  br label %99

99:                                               ; preds = %95, %92
  %100 = phi i1 [ false, %92 ], [ %98, %95 ]
  br i1 %100, label %101, label %118

101:                                              ; preds = %99
  %102 = load i8, ptr %23, align 1
  %103 = add i8 %102, 1
  store i8 %103, ptr %23, align 1
  %104 = zext i8 %102 to i64
  %105 = getelementptr [16 x i8], ptr %21, i64 0, i64 %104
  %106 = load i8, ptr %105, align 1
  %107 = zext i8 %106 to i32
  %108 = load ptr, ptr %12, align 8
  %109 = getelementptr i8, ptr %108, i32 1
  store ptr %109, ptr %12, align 8
  %110 = load i8, ptr %108, align 1
  %111 = zext i8 %110 to i32
  %112 = xor i32 %107, %111
  %113 = trunc i32 %112 to i8
  %114 = load ptr, ptr %19, align 8
  %115 = getelementptr i8, ptr %114, i32 1
  store ptr %115, ptr %19, align 8
  store i8 %113, ptr %114, align 1
  %116 = load i32, ptr %13, align 4
  %117 = add i32 %116, -1
  store i32 %117, ptr %13, align 4
  br label %92, !llvm.loop !12

118:                                              ; preds = %99
  br label %82, !llvm.loop !13

119:                                              ; preds = %82
  %120 = load ptr, ptr %14, align 8
  %121 = icmp ne ptr %120, null
  br i1 %121, label %122, label %149

122:                                              ; preds = %119
  %123 = load i8, ptr %15, align 1
  %124 = zext i8 %123 to i32
  %125 = icmp sgt i32 %124, 16
  br i1 %125, label %126, label %127

126:                                              ; preds = %122
  store i8 16, ptr %15, align 1
  br label %127

127:                                              ; preds = %126, %122
  store i8 0, ptr %23, align 1
  br label %128

128:                                              ; preds = %131, %127
  %129 = load i8, ptr %15, align 1
  %130 = icmp ne i8 %129, 0
  br i1 %130, label %131, label %148

131:                                              ; preds = %128
  %132 = load i8, ptr %23, align 1
  %133 = add i8 %132, 1
  store i8 %133, ptr %23, align 1
  %134 = zext i8 %132 to i64
  %135 = getelementptr [16 x i8], ptr %22, i64 0, i64 %134
  %136 = load i8, ptr %135, align 1
  %137 = zext i8 %136 to i32
  %138 = load ptr, ptr %14, align 8
  %139 = getelementptr i8, ptr %138, i32 1
  store ptr %139, ptr %14, align 8
  %140 = load i8, ptr %138, align 1
  %141 = zext i8 %140 to i32
  %142 = xor i32 %137, %141
  %143 = trunc i32 %142 to i8
  %144 = load ptr, ptr %19, align 8
  %145 = getelementptr i8, ptr %144, i32 1
  store ptr %145, ptr %19, align 8
  store i8 %143, ptr %144, align 1
  %146 = load i8, ptr %15, align 1
  %147 = add i8 %146, -1
  store i8 %147, ptr %15, align 1
  br label %128, !llvm.loop !14

148:                                              ; preds = %128
  br label %149

149:                                              ; preds = %148, %119
  %150 = load ptr, ptr %18, align 8
  store ptr %150, ptr %9, align 8
  call void @llvm.lifetime.end.p0(i64 1, ptr %23) #10
  call void @llvm.lifetime.end.p0(i64 16, ptr %22) #10
  call void @llvm.lifetime.end.p0(i64 16, ptr %21) #10
  call void @llvm.lifetime.end.p0(i64 16, ptr %20) #10
  call void @llvm.lifetime.end.p0(i64 8, ptr %19) #10
  call void @llvm.lifetime.end.p0(i64 8, ptr %18) #10
  br label %152

151:                                              ; preds = %29, %8
  store ptr null, ptr %9, align 8
  br label %152

152:                                              ; preds = %151, %149
  %153 = load ptr, ptr %9, align 8
  ret ptr %153
}