; Function Attrs: null_pointer_is_valid sspstrong uwtable
define hidden ptr @knx_ccm_encrypt(ptr noundef writeonly captures(address_is_null, ret: address, provenance) %0, ptr noundef %1, ptr noundef readonly captures(address_is_null) %2, i32 noundef %3, ptr noundef readonly captures(address_is_null) %4, i8 noundef zeroext %5, ptr noundef readonly captures(none) %6, i8 noundef zeroext %7) local_unnamed_addr #0 {
  %9 = alloca ptr, align 8
  %10 = alloca ptr, align 8
  %11 = alloca [16 x i8], align 16
  %12 = alloca [16 x i8], align 16
  %13 = alloca [16 x i8], align 16
  %14 = icmp sgt i32 %3, -1
  br i1 %14, label %15, label %74

15:                                               ; preds = %8
  %16 = icmp eq i32 %3, 0
  %17 = icmp ne ptr %2, null
  %or.cond = or i1 %17, %16
  br i1 %or.cond, label %18, label %74

18:                                               ; preds = %15
  %.not = icmp eq ptr %0, null
  br i1 %.not, label %19, label %25

19:                                               ; preds = %18
  %20 = tail call ptr @wmem_packet_scope()
  %21 = zext i8 %5 to i32
  %22 = add nuw i32 %3, %21
  %23 = sext i32 %22 to i64
  %24 = tail call noalias ptr @wmem_alloc(ptr noundef %20, i64 noundef %23) #16
  br label %25

25:                                               ; preds = %18, %19
  %26 = phi ptr [ %24, %19 ], [ %0, %18 ]
  call void @llvm.lifetime.start.p0(i64 16, ptr nonnull %11) #14
  call void @llvm.lifetime.start.p0(i64 16, ptr nonnull %12) #14
  call void @llvm.lifetime.start.p0(i64 16, ptr nonnull %13) #14
  call void @llvm.memcpy.p0.p0.i64(ptr noundef nonnull align 16 dereferenceable(16) %11, ptr noundef align 1 dereferenceable(16) %6, i64 noundef 16, i1 noundef false) #14
  call void @llvm.lifetime.start.p0(i64 8, ptr nonnull %10) #14
  store ptr null, ptr %10, align 8
  %27 = call i32 @gcry_cipher_open(ptr noundef nonnull %10, i32 noundef 7, i32 noundef 3, i32 noundef 0)
  %28 = load ptr, ptr %10, align 8
  %29 = call i32 @gcry_cipher_setkey(ptr noundef %28, ptr noundef %1, i64 noundef 16)
  %30 = load ptr, ptr %10, align 8
  %31 = call i32 @gcry_cipher_encrypt(ptr noundef %30, ptr noundef nonnull %13, i64 noundef 16, ptr noundef nonnull %11, i64 noundef 16)
  %32 = load ptr, ptr %10, align 8
  call void @gcry_cipher_close(ptr noundef %32)
  call void @llvm.lifetime.end.p0(i64 8, ptr nonnull %10) #14
  %33 = icmp ne i32 %3, 0
  %34 = icmp ult i8 %7, 16
  %35 = and i1 %33, %34
  br i1 %35, label %.lr.ph.preheader, label %.preheader

.lr.ph.preheader:                                 ; preds = %25
  %36 = zext nneg i8 %7 to i64
  br label %.lr.ph

.preheader:                                       ; preds = %.lr.ph, %25
  %.041.lcssa = phi i32 [ %3, %25 ], [ %44, %.lr.ph ]
  %.038.lcssa = phi ptr [ %2, %25 ], [ %40, %.lr.ph ]
  %.034.lcssa = phi ptr [ %26, %25 ], [ %43, %.lr.ph ]
  %.not4963 = icmp eq i32 %.041.lcssa, 0
  br i1 %.not4963, label %._crit_edge, label %.lr.ph67

.lr.ph67:                                         ; preds = %.preheader
  %37 = getelementptr inbounds nuw i8, ptr %11, i64 15
  br label %48

.lr.ph:                                           ; preds = %.lr.ph.preheader, %.lr.ph
  %indvars.iv = phi i64 [ %36, %.lr.ph.preheader ], [ %indvars.iv.next, %.lr.ph ]
  %.03455 = phi ptr [ %26, %.lr.ph.preheader ], [ %43, %.lr.ph ]
  %.03854 = phi ptr [ %2, %.lr.ph.preheader ], [ %40, %.lr.ph ]
  %.04153 = phi i32 [ %3, %.lr.ph.preheader ], [ %44, %.lr.ph ]
  %indvars.iv.next = add nuw nsw i64 %indvars.iv, 1
  %38 = getelementptr [16 x i8], ptr %13, i64 0, i64 %indvars.iv
  %39 = load i8, ptr %38, align 1
  %40 = getelementptr i8, ptr %.03854, i64 1
  %41 = load i8, ptr %.03854, align 1
  %42 = xor i8 %41, %39
  %43 = getelementptr i8, ptr %.03455, i64 1
  store i8 %42, ptr %.03455, align 1
  %44 = add nsw i32 %.04153, -1
  %45 = icmp ne i32 %44, 0
  %46 = icmp samesign ult i64 %indvars.iv, 15
  %47 = and i1 %45, %46
  br i1 %47, label %.lr.ph, label %.preheader, !llvm.loop !14

.loopexit52:                                      ; preds = %59
  %.not49 = icmp eq i32 %66, 0
  br i1 %.not49, label %._crit_edge, label %48, !llvm.loop !15

48:                                               ; preds = %.lr.ph67, %.loopexit52
  %.13566 = phi ptr [ %.034.lcssa, %.lr.ph67 ], [ %65, %.loopexit52 ]
  %.13965 = phi ptr [ %.038.lcssa, %.lr.ph67 ], [ %62, %.loopexit52 ]
  %.14264 = phi i32 [ %.041.lcssa, %.lr.ph67 ], [ %66, %.loopexit52 ]
  %49 = load i8, ptr %37, align 1
  %50 = add i8 %49, 1
  store i8 %50, ptr %37, align 1
  call void @llvm.lifetime.start.p0(i64 8, ptr nonnull %9) #14
  store ptr null, ptr %9, align 8
  %51 = call i32 @gcry_cipher_open(ptr noundef nonnull %9, i32 noundef 7, i32 noundef 3, i32 noundef 0)
  %52 = load ptr, ptr %9, align 8
  %53 = call i32 @gcry_cipher_setkey(ptr noundef %52, ptr noundef %1, i64 noundef 16)
  %54 = load ptr, ptr %9, align 8
  %55 = call i32 @gcry_cipher_encrypt(ptr noundef %54, ptr noundef nonnull %12, i64 noundef 16, ptr noundef nonnull %11, i64 noundef 16)
  %56 = load ptr, ptr %9, align 8
  call void @gcry_cipher_close(ptr noundef %56)
  call void @llvm.lifetime.end.p0(i64 8, ptr nonnull %9) #14
  %57 = add i32 %.14264, -1
  %umin = call i32 @llvm.umin.i32(i32 %57, i32 15)
  %58 = add nuw nsw i32 %umin, 1
  %wide.trip.count = zext nneg i32 %58 to i64
  br label %59

59:                                               ; preds = %48, %59
  %indvars.iv83 = phi i64 [ 0, %48 ], [ %indvars.iv.next84, %59 ]
  %.23661 = phi ptr [ %.13566, %48 ], [ %65, %59 ]
  %.24060 = phi ptr [ %.13965, %48 ], [ %62, %59 ]
  %.24359 = phi i32 [ %.14264, %48 ], [ %66, %59 ]
  %indvars.iv.next84 = add nuw nsw i64 %indvars.iv83, 1
  %60 = getelementptr [16 x i8], ptr %12, i64 0, i64 %indvars.iv83
  %61 = load i8, ptr %60, align 1
  %62 = getelementptr i8, ptr %.24060, i64 1
  %63 = load i8, ptr %.24060, align 1
  %64 = xor i8 %63, %61
  %65 = getelementptr i8, ptr %.23661, i64 1
  store i8 %64, ptr %.23661, align 1
  %66 = add nsw i32 %.24359, -1
  %exitcond.not = icmp eq i64 %indvars.iv.next84, %wide.trip.count
  br i1 %exitcond.not, label %.loopexit52, label %59, !llvm.loop !16

._crit_edge:                                      ; preds = %.loopexit52, %.preheader
  %.135.lcssa = phi ptr [ %.034.lcssa, %.preheader ], [ %65, %.loopexit52 ]
  %.not50 = icmp eq ptr %4, null
  %.not5169 = icmp eq i8 %5, 0
  %or.cond76 = or i1 %.not50, %.not5169
  br i1 %or.cond76, label %.loopexit, label %.lr.ph75.preheader

.lr.ph75.preheader:                               ; preds = %._crit_edge
  %spec.store.select = call i8 @llvm.umin.i8(i8 %5, i8 16)
  br label %.lr.ph75

.lr.ph75:                                         ; preds = %.lr.ph75.preheader, %.lr.ph75
  %indvars.iv86 = phi i64 [ 0, %.lr.ph75.preheader ], [ %indvars.iv.next87, %.lr.ph75 ]
  %.372 = phi ptr [ %.135.lcssa, %.lr.ph75.preheader ], [ %72, %.lr.ph75 ]
  %.04471 = phi i8 [ %spec.store.select, %.lr.ph75.preheader ], [ %73, %.lr.ph75 ]
  %.04570 = phi ptr [ %4, %.lr.ph75.preheader ], [ %69, %.lr.ph75 ]
  %indvars.iv.next87 = add nuw nsw i64 %indvars.iv86, 1
  %67 = getelementptr [16 x i8], ptr %13, i64 0, i64 %indvars.iv86
  %68 = load i8, ptr %67, align 1
  %69 = getelementptr i8, ptr %.04570, i64 1
  %70 = load i8, ptr %.04570, align 1
  %71 = xor i8 %70, %68
  %72 = getelementptr i8, ptr %.372, i64 1
  store i8 %71, ptr %.372, align 1
  %73 = add nsw i8 %.04471, -1
  %.not51 = icmp eq i8 %73, 0
  br i1 %.not51, label %.loopexit, label %.lr.ph75, !llvm.loop !17

.loopexit:                                        ; preds = %.lr.ph75, %._crit_edge
  call void @llvm.lifetime.end.p0(i64 16, ptr nonnull %13) #14
  call void @llvm.lifetime.end.p0(i64 16, ptr nonnull %12) #14
  call void @llvm.lifetime.end.p0(i64 16, ptr nonnull %11) #14
  br label %74

74:                                               ; preds = %8, %15, %.loopexit
  %.037 = phi ptr [ %26, %.loopexit ], [ null, %15 ], [ null, %8 ]
  ret ptr %.037
}